target datalayout = "e-m:e-p270:32:32-p271:32:32-p272:64:64-i64:64-i128:128-f80:128-n8:16:32:64-S128"
target triple = "x86_64-pc-linux-gnu"

%struct.MvcManagerStruct = type { ptr, ptr, ptr, ptr }
%struct.MvcCoverStruct = type { i32, i32, i32, %struct.MvcListStruct, ptr, i32, ptr, ptr, ptr }
%struct.MvcListStruct = type { ptr, ptr, i32 }

; Function Attrs: nounwind uwtable
define ptr @Mvc_CoverAlloc(ptr noundef %0, i32 noundef %1) #0 {
  %3 = alloca ptr, align 8
  %4 = alloca i32, align 4
  %5 = alloca ptr, align 8
  %6 = alloca i32, align 4
  store ptr %0, ptr %3, align 8, !tbaa !3
  store i32 %1, ptr %4, align 4, !tbaa !8
  call void @llvm.lifetime.start.p0(i64 8, ptr %5) #5
  call void @llvm.lifetime.start.p0(i64 4, ptr %6) #5
  store i32 32, ptr %6, align 4, !tbaa !8
  %7 = load ptr, ptr %3, align 8, !tbaa !3
  %8 = getelementptr inbounds nuw %struct.MvcManagerStruct, ptr %7, i32 0, i32 0
  %9 = load ptr, ptr %8, align 8, !tbaa !10
  %10 = call ptr @Extra_MmFixedEntryFetch(ptr noundef %9)
  store ptr %10, ptr %5, align 8, !tbaa !13
  %11 = load ptr, ptr %3, align 8, !tbaa !3
  %12 = load ptr, ptr %5, align 8, !tbaa !13
  %13 = getelementptr inbounds nuw %struct.MvcCoverStruct, ptr %12, i32 0, i32 8
  store ptr %11, ptr %13, align 8, !tbaa !15
  %14 = load i32, ptr %4, align 4, !tbaa !8
  %15 = load ptr, ptr %5, align 8, !tbaa !13
  %16 = getelementptr inbounds nuw %struct.MvcCoverStruct, ptr %15, i32 0, i32 2
  store i32 %14, ptr %16, align 8, !tbaa !21
  %17 = load i32, ptr %4, align 4, !tbaa !8
  %18 = load i32, ptr %6, align 4, !tbaa !8
  %19 = sdiv i32 %17, %18
  %20 = load i32, ptr %4, align 4, !tbaa !8
  %21 = load i32, ptr %6, align 4, !tbaa !8
  %22 = srem i32 %20, %21
  %23 = icmp sgt i32 %22, 0
  %24 = zext i1 %23 to i32
  %25 = add nsw i32 %19, %24
  %26 = load ptr, ptr %5, align 8, !tbaa !13
  %27 = getelementptr inbounds nuw %struct.MvcCoverStruct, ptr %26, i32 0, i32 0
  store i32 %25, ptr %27, align 8, !tbaa !22
  %28 = load ptr, ptr %5, align 8, !tbaa !13
  %29 = getelementptr inbounds nuw %struct.MvcCoverStruct, ptr %28, i32 0, i32 0
  %30 = load i32, ptr %29, align 8, !tbaa !22
  %31 = load i32, ptr %6, align 4, !tbaa !8
  %32 = mul nsw i32 %30, %31
  %33 = load ptr, ptr %5, align 8, !tbaa !13
  %34 = getelementptr inbounds nuw %struct.MvcCoverStruct, ptr %33, i32 0, i32 2
  %35 = load i32, ptr %34, align 8, !tbaa !21
  %36 = sub nsw i32 %32, %35
  %37 = load ptr, ptr %5, align 8, !tbaa !13
  %38 = getelementptr inbounds nuw %struct.MvcCoverStruct, ptr %37, i32 0, i32 1
  store i32 %36, ptr %38, align 4, !tbaa !23
  %39 = load ptr, ptr %5, align 8, !tbaa !13
  %40 = getelementptr inbounds nuw %struct.MvcCoverStruct, ptr %39, i32 0, i32 3
  %41 = getelementptr inbounds nuw %struct.MvcListStruct, ptr %40, i32 0, i32 2
  store i32 0, ptr %41, align 8, !tbaa !24
  %42 = load ptr, ptr %5, align 8, !tbaa !13
  %43 = getelementptr inbounds nuw %struct.MvcCoverStruct, ptr %42, i32 0, i32 3
  %44 = getelementptr inbounds nuw %struct.MvcListStruct, ptr %43, i32 0, i32 0
  store ptr null, ptr %44, align 8, !tbaa !25
  %45 = load ptr, ptr %5, align 8, !tbaa !13
  %46 = getelementptr inbounds nuw %struct.MvcCoverStruct, ptr %45, i32 0, i32 3
  %47 = getelementptr inbounds nuw %struct.MvcListStruct, ptr %46, i32 0, i32 1
  store ptr null, ptr %47, align 8, !tbaa !26
  %48 = load ptr, ptr %5, align 8, !tbaa !13
  %49 = getelementptr inbounds nuw %struct.MvcCoverStruct, ptr %48, i32 0, i32 5
  store i32 0, ptr %49, align 8, !tbaa !27
  %50 = load ptr, ptr %5, align 8, !tbaa !13
  %51 = getelementptr inbounds nuw %struct.MvcCoverStruct, ptr %50, i32 0, i32 4
  store ptr null, ptr %51, align 8, !tbaa !28
  %52 = load ptr, ptr %5, align 8, !tbaa !13
  %53 = getelementptr inbounds nuw %struct.MvcCoverStruct, ptr %52, i32 0, i32 7
  store ptr null, ptr %53, align 8, !tbaa !29
  %54 = load ptr, ptr %5, align 8, !tbaa !13
  %55 = getelementptr inbounds nuw %struct.MvcCoverStruct, ptr %54, i32 0, i32 6
  store ptr null, ptr %55, align 8, !tbaa !30
  %56 = load ptr, ptr %5, align 8, !tbaa !13
  call void @llvm.lifetime.end.p0(i64 4, ptr %6) #5
  call void @llvm.lifetime.end.p0(i64 8, ptr %5) #5
  ret ptr %56
}