; Function Attrs: nounwind uwtable
define noundef ptr @Mvc_CoverAlloc(ptr noundef %0, i32 noundef %1) local_unnamed_addr #0 {
  %3 = load ptr, ptr %0, align 8, !tbaa !3
  %4 = tail call ptr @Extra_MmFixedEntryFetch(ptr noundef %3) #7
  %5 = getelementptr inbounds nuw i8, ptr %4, i64 72
  store ptr %0, ptr %5, align 8, !tbaa !9
  %6 = getelementptr inbounds nuw i8, ptr %4, i64 8
  store i32 %1, ptr %6, align 8, !tbaa !17
  %7 = sdiv i32 %1, 32
  %8 = and i32 %1, -2147483617
  %9 = icmp sgt i32 %8, 0
  %10 = zext i1 %9 to i32
  %11 = add nsw i32 %7, %10
  store i32 %11, ptr %4, align 8, !tbaa !18
  %12 = shl nsw i32 %11, 5
  %13 = sub nsw i32 %12, %1
  %14 = getelementptr inbounds nuw i8, ptr %4, i64 4
  store i32 %13, ptr %14, align 4, !tbaa !19
  %15 = getelementptr inbounds nuw i8, ptr %4, i64 16
  %16 = getelementptr inbounds nuw i8, ptr %4, i64 48
  store i32 0, ptr %16, align 8, !tbaa !20
  %17 = getelementptr inbounds nuw i8, ptr %4, i64 40
  store ptr null, ptr %17, align 8, !tbaa !21
  %18 = getelementptr inbounds nuw i8, ptr %4, i64 56
  tail call void @llvm.memset.p0.i64(ptr noundef nonnull align 8 dereferenceable(20) %15, i8 0, i64 20, i1 false)
  tail call void @llvm.memset.p0.i64(ptr noundef nonnull align 8 dereferenceable(16) %18, i8 0, i64 16, i1 false)
  ret ptr %4
}